; Function Attrs: mustprogress uwtable
define void @_ZN6icu_7713DecimalFormat25adoptDecimalFormatSymbolsEPNS_20DecimalFormatSymbolsE(ptr noundef nonnull align 8 dereferenceable(72) %0, ptr noundef %1) unnamed_addr #1 align 2 personality ptr @__gxx_personality_v0 {
  %3 = alloca i32, align 4
  %4 = icmp eq ptr %1, null
  br i1 %4, label %_ZN6icu_7712LocalPointerINS_20DecimalFormatSymbolsEED2Ev.exit, label %5

5:                                                ; preds = %2
  %6 = getelementptr inbounds nuw i8, ptr %0, i64 64
  %7 = load ptr, ptr %6, align 8, !tbaa !25
  %8 = icmp eq ptr %7, null
  br i1 %8, label %17, label %9

9:                                                ; preds = %5
  %10 = getelementptr inbounds nuw i8, ptr %7, i64 768
  %11 = load ptr, ptr %10, align 8, !tbaa !32
  %12 = icmp eq ptr %11, null
  br i1 %12, label %_ZN6icu_7712LocalPointerIKNS_20DecimalFormatSymbolsEE12adoptInsteadEPS2_.exit, label %13

13:                                               ; preds = %9
  %14 = load ptr, ptr %11, align 8, !tbaa !18
  %15 = getelementptr inbounds nuw i8, ptr %14, i64 8
  %16 = load ptr, ptr %15, align 8
  tail call void %16(ptr noundef nonnull align 8 dereferenceable(2579) %11) #19
  br label %_ZN6icu_7712LocalPointerIKNS_20DecimalFormatSymbolsEE12adoptInsteadEPS2_.exit

_ZN6icu_7712LocalPointerIKNS_20DecimalFormatSymbolsEE12adoptInsteadEPS2_.exit: ; preds = %9, %13
  store ptr %1, ptr %10, align 8, !tbaa !32
  call void @llvm.lifetime.start.p0(i64 4, ptr nonnull %3) #19
  store i32 0, ptr %3, align 4, !tbaa !13
  call void @_ZN6icu_7713DecimalFormat5touchER10UErrorCode(ptr noundef nonnull align 8 dereferenceable(72) %0, ptr noundef nonnull align 4 dereferenceable(4) %3)
  call void @llvm.lifetime.end.p0(i64 4, ptr nonnull %3) #19
  br label %_ZN6icu_7712LocalPointerINS_20DecimalFormatSymbolsEED2Ev.exit

17:                                               ; preds = %5
  %18 = load ptr, ptr %1, align 8, !tbaa !18
  %19 = getelementptr inbounds nuw i8, ptr %18, i64 8
  %20 = load ptr, ptr %19, align 8
  tail call void %20(ptr noundef nonnull align 8 dereferenceable(2579) %1) #19
  br label %_ZN6icu_7712LocalPointerINS_20DecimalFormatSymbolsEED2Ev.exit

_ZN6icu_7712LocalPointerINS_20DecimalFormatSymbolsEED2Ev.exit: ; preds = %17, %_ZN6icu_7712LocalPointerIKNS_20DecimalFormatSymbolsEE12adoptInsteadEPS2_.exit, %2
  ret void
}